target datalayout = "e-m:e-p270:32:32-p271:32:32-p272:64:64-i64:64-i128:128-f80:128-n8:16:32:64-S128"
target triple = "x86_64-pc-linux-gnu"

; Function Attrs: nounwind uwtable
define hidden i32 @uv__sock_reuseport(i32 noundef %0) #0 {
  %2 = alloca i32, align 4
  %3 = alloca i32, align 4
  %4 = alloca i32, align 4
  %5 = alloca i32, align 4
  store i32 %0, ptr %3, align 4
  call void @llvm.lifetime.start.p0(i64 4, ptr %4) #11
  store i32 1, ptr %4, align 4
  %6 = load i32, ptr %3, align 4
  %7 = call i32 @setsockopt(i32 noundef %6, i32 noundef 1, i32 noundef 15, ptr noundef %4, i32 noundef 4) #11
  %8 = icmp ne i32 %7, 0
  br i1 %8, label %9, label %13

9:                                                ; preds = %1
  %10 = call ptr @__errno_location() #12
  %11 = load i32, ptr %10, align 4
  %12 = sub nsw i32 0, %11
  store i32 %12, ptr %2, align 4
  store i32 1, ptr %5, align 4
  br label %14

13:                                               ; preds = %1
  store i32 0, ptr %2, align 4
  store i32 1, ptr %5, align 4
  br label %14

14:                                               ; preds = %13, %9
  call void @llvm.lifetime.end.p0(i64 4, ptr %4) #11
  %15 = load i32, ptr %2, align 4
  ret i32 %15
}