; Function Attrs: nounwind uwtable
define hidden range(i32 -2147483647, -2147483648) i32 @uv__sock_reuseport(i32 noundef %0) local_unnamed_addr #0 {
  %2 = alloca i32, align 4
  call void @llvm.lifetime.start.p0(i64 4, ptr nonnull %2) #23
  store i32 1, ptr %2, align 4
  %3 = call i32 @setsockopt(i32 noundef %0, i32 noundef 1, i32 noundef 15, ptr noundef nonnull %2, i32 noundef 4) #23
  %.not = icmp eq i32 %3, 0
  br i1 %.not, label %8, label %4

4:                                                ; preds = %1
  %5 = tail call ptr @__errno_location() #24
  %6 = load i32, ptr %5, align 4
  %7 = sub nsw i32 0, %6
  br label %8

8:                                                ; preds = %1, %4
  %.0 = phi i32 [ %7, %4 ], [ 0, %1 ]
  call void @llvm.lifetime.end.p0(i64 4, ptr nonnull %2) #23
  ret i32 %.0
}